(dp0
S'Iven_Trall'
p1
(dp2
S'equipment'
p3
(dp4
S'weapons'
p5
I1
sS'tools'
p6
I8
sS'suits'
p7
I6
ssS'selected'
p8
(dp9
S'planet'
p10
S''
p11
sS'quarry'
p12
g11
ssS'trip'
p13
I-1
sS'exp'
p14
I0
sS'injured_on'
p15
I0
ss.