(dp0
S'Iven_Trall'
p1
(dp2
S'equipment'
p3
(dp4
S'weapons'
p5
I0
sS'tools'
p6
I0
sS'suits'
p7
I0
ssS'selected'
p8
(dp9
S'game'
p10
S''
p11
sS'planets'
p12
g11
ssS'trip'
p13
I0
sS'exp'
p14
I0
sS'injured_on'
p15
I0
ss.