(dp0
S'Iven_Trall'
p1
(dp2
S'equipment'
p3
(dp4
S'weapons'
p5
I0
sS'tools'
p6
I0
sS'suits'
p7
I0
ssS'selected'
p8
(dp9
S'game'
p10
I1
sS'destination'
p11
I2
ssS'trip'
p12
I0
sS'exp'
p13
I0
sS'injured_on'
p14
I0
ss.